target datalayout = "e-m:e-p270:32:32-p271:32:32-p272:64:64-i64:64-i128:128-f80:128-n8:16:32:64-S128"
target triple = "x86_64-pc-linux-gnu"

@.str.14 = private unnamed_addr constant [3 x i8] c"!=\00", align 1
@.str.44 = private unnamed_addr constant [7 x i8] c"string\00", align 1

; Function Attrs: nounwind uwtable
define i32 @test_str_ne(ptr noundef %0, i32 noundef %1, ptr noundef %2, ptr noundef %3, ptr noundef %4, ptr noundef %5) #0 {
  %7 = alloca i32, align 4
  %8 = alloca ptr, align 8
  %9 = alloca i32, align 4
  %10 = alloca ptr, align 8
  %11 = alloca ptr, align 8
  %12 = alloca ptr, align 8
  %13 = alloca ptr, align 8
  store ptr %0, ptr %8, align 8, !tbaa !3
  store i32 %1, ptr %9, align 4, !tbaa !8
  store ptr %2, ptr %10, align 8, !tbaa !3
  store ptr %3, ptr %11, align 8, !tbaa !3
  store ptr %4, ptr %12, align 8, !tbaa !3
  store ptr %5, ptr %13, align 8, !tbaa !3
  %14 = load ptr, ptr %12, align 8, !tbaa !3
  %15 = icmp eq ptr %14, null
  %16 = zext i1 %15 to i32
  %17 = load ptr, ptr %13, align 8, !tbaa !3
  %18 = icmp eq ptr %17, null
  %19 = zext i1 %18 to i32
  %20 = xor i32 %16, %19
  %21 = icmp ne i32 %20, 0
  br i1 %21, label %22, label %23

22:                                               ; preds = %6
  store i32 1, ptr %7, align 4
  br label %55

23:                                               ; preds = %6
  %24 = load ptr, ptr %12, align 8, !tbaa !3
  %25 = icmp eq ptr %24, null
  br i1 %25, label %31, label %26

26:                                               ; preds = %23
  %27 = load ptr, ptr %12, align 8, !tbaa !3
  %28 = load ptr, ptr %13, align 8, !tbaa !3
  %29 = call i32 @strcmp(ptr noundef %27, ptr noundef %28) #9
  %30 = icmp eq i32 %29, 0
  br i1 %30, label %31, label %54

31:                                               ; preds = %26, %23
  %32 = load ptr, ptr %8, align 8, !tbaa !3
  %33 = load i32, ptr %9, align 4, !tbaa !8
  %34 = load ptr, ptr %10, align 8, !tbaa !3
  %35 = load ptr, ptr %11, align 8, !tbaa !3
  %36 = load ptr, ptr %12, align 8, !tbaa !3
  %37 = load ptr, ptr %12, align 8, !tbaa !3
  %38 = icmp eq ptr %37, null
  br i1 %38, label %39, label %40

39:                                               ; preds = %31
  br label %43

40:                                               ; preds = %31
  %41 = load ptr, ptr %12, align 8, !tbaa !3
  %42 = call i64 @strlen(ptr noundef %41) #9
  br label %43

43:                                               ; preds = %40, %39
  %44 = phi i64 [ 0, %39 ], [ %42, %40 ]
  %45 = load ptr, ptr %13, align 8, !tbaa !3
  %46 = load ptr, ptr %13, align 8, !tbaa !3
  %47 = icmp eq ptr %46, null
  br i1 %47, label %48, label %49

48:                                               ; preds = %43
  br label %52

49:                                               ; preds = %43
  %50 = load ptr, ptr %13, align 8, !tbaa !3
  %51 = call i64 @strlen(ptr noundef %50) #9
  br label %52

52:                                               ; preds = %49, %48
  %53 = phi i64 [ 0, %48 ], [ %51, %49 ]
  call void @test_fail_string_message(ptr noundef null, ptr noundef %32, i32 noundef %33, ptr noundef @.str.44, ptr noundef %34, ptr noundef %35, ptr noundef @.str.14, ptr noundef %36, i64 noundef %44, ptr noundef %45, i64 noundef %53)
  store i32 0, ptr %7, align 4
  br label %55

54:                                               ; preds = %26
  store i32 1, ptr %7, align 4
  br label %55

55:                                               ; preds = %54, %52, %22
  %56 = load i32, ptr %7, align 4
  ret i32 %56
}