; Function Attrs: nounwind uwtable
define range(i32 0, 2) i32 @test_str_ne(ptr noundef %0, i32 noundef %1, ptr noundef %2, ptr noundef %3, ptr noundef %4, ptr noundef %5) local_unnamed_addr #0 {
  %7 = icmp eq ptr %4, null
  %8 = icmp eq ptr %5, null
  %9 = xor i1 %7, %8
  br i1 %9, label %21, label %10

10:                                               ; preds = %6
  br i1 %7, label %.critedge, label %11

11:                                               ; preds = %10
  %12 = tail call i32 @strcmp(ptr noundef nonnull dereferenceable(1) %4, ptr noundef nonnull dereferenceable(1) %5) #10
  %13 = icmp eq i32 %12, 0
  br i1 %13, label %.critedge.thread, label %21

.critedge.thread:                                 ; preds = %11
  %14 = tail call i64 @strlen(ptr noundef nonnull dereferenceable(1) %4) #10
  br label %15

.critedge:                                        ; preds = %10
  br i1 %8, label %18, label %15

15:                                               ; preds = %.critedge.thread, %.critedge
  %16 = phi i64 [ %14, %.critedge.thread ], [ 0, %.critedge ]
  %17 = tail call i64 @strlen(ptr noundef nonnull dereferenceable(1) %5) #10
  br label %18

18:                                               ; preds = %.critedge, %15
  %19 = phi i64 [ %16, %15 ], [ 0, %.critedge ]
  %20 = phi i64 [ %17, %15 ], [ 0, %.critedge ]
  tail call void @test_fail_string_message(ptr noundef null, ptr noundef %0, i32 noundef %1, ptr noundef nonnull @.str.44, ptr noundef %2, ptr noundef %3, ptr noundef nonnull @.str.14, ptr noundef %4, i64 noundef %19, ptr noundef %5, i64 noundef %20) #8
  br label %21

21:                                               ; preds = %11, %6, %18
  %.0 = phi i32 [ 0, %18 ], [ 1, %6 ], [ 1, %11 ]
  ret i32 %.0
}